; Function Attrs: nounwind uwtable
define internal fastcc void @tng_residue_data_read(ptr noundef %0, ptr noundef %1, i8 noundef signext %2, ptr noundef nonnull %3) unnamed_addr #4 {
  %5 = getelementptr inbounds nuw i8, ptr %1, i64 8
  %6 = getelementptr inbounds nuw i8, ptr %0, i64 8
  %7 = load ptr, ptr %6, align 8, !tbaa !137
  %8 = tail call i64 @fread(ptr noundef nonnull %5, i64 noundef 8, i64 noundef 1, ptr noundef %7)
  %9 = icmp eq i64 %8, 0
  br i1 %9, label %tng_file_input_numerical.exit.thread20, label %12

tng_file_input_numerical.exit.thread20:           ; preds = %4
  %10 = load ptr, ptr @stderr, align 8, !tbaa !14
  %11 = tail call i32 (ptr, ptr, ...) @fprintf(ptr noundef %10, ptr noundef nonnull @.str.30, ptr noundef nonnull @.str.1, i32 noundef 2523) #29
  br label %tng_file_input_numerical.exit18.thread

12:                                               ; preds = %4
  %13 = icmp eq i8 %2, 1
  br i1 %13, label %14, label %15

14:                                               ; preds = %12
  tail call void @md5_append(ptr noundef nonnull %3, ptr noundef nonnull %5, i32 noundef 8) #26
  br label %15

15:                                               ; preds = %14, %12
  %16 = getelementptr inbounds nuw i8, ptr %0, i64 48
  %17 = load ptr, ptr %16, align 8, !tbaa !198
  %.not22.i = icmp eq ptr %17, null
  br i1 %.not22.i, label %tng_file_input_numerical.exit.thread, label %18

18:                                               ; preds = %15
  %19 = tail call i32 %17(ptr noundef nonnull %0, ptr noundef nonnull %5) #26
  %.not23.i = icmp eq i32 %19, 0
  br i1 %.not23.i, label %tng_file_input_numerical.exit.thread, label %tng_file_input_numerical.exit

tng_file_input_numerical.exit:                    ; preds = %18
  %20 = load ptr, ptr @stderr, align 8, !tbaa !14
  %21 = tail call i32 (ptr, ptr, ...) @fprintf(ptr noundef %20, ptr noundef nonnull @.str.31, ptr noundef nonnull @.str.1, i32 noundef 2523) #29
  br label %tng_file_input_numerical.exit.thread

tng_file_input_numerical.exit.thread:             ; preds = %18, %15, %tng_file_input_numerical.exit
  %22 = getelementptr inbounds nuw i8, ptr %1, i64 16
  tail call fastcc void @tng_freadstr(ptr noundef nonnull %0, ptr noundef nonnull %22, i8 noundef signext %2, ptr noundef nonnull %3, i32 noundef 2529)
  %23 = getelementptr inbounds nuw i8, ptr %1, i64 24
  %24 = load ptr, ptr %6, align 8, !tbaa !137
  %25 = tail call i64 @fread(ptr noundef nonnull %23, i64 noundef 8, i64 noundef 1, ptr noundef %24)
  %26 = icmp eq i64 %25, 0
  br i1 %26, label %35, label %27

27:                                               ; preds = %tng_file_input_numerical.exit.thread
  br i1 %13, label %28, label %29

28:                                               ; preds = %27
  tail call void @md5_append(ptr noundef nonnull %3, ptr noundef nonnull %23, i32 noundef 8) #26
  br label %29

29:                                               ; preds = %28, %27
  %30 = load ptr, ptr %16, align 8, !tbaa !198
  %.not22.i12 = icmp eq ptr %30, null
  br i1 %.not22.i12, label %tng_file_input_numerical.exit18.thread, label %31

31:                                               ; preds = %29
  %32 = tail call i32 %30(ptr noundef nonnull %0, ptr noundef nonnull %23) #26
  %.not23.i13 = icmp eq i32 %32, 0
  br i1 %.not23.i13, label %tng_file_input_numerical.exit18.thread, label %tng_file_input_numerical.exit18

tng_file_input_numerical.exit18:                  ; preds = %31
  %33 = load ptr, ptr @stderr, align 8, !tbaa !14
  %34 = tail call i32 (ptr, ptr, ...) @fprintf(ptr noundef %33, ptr noundef nonnull @.str.31, ptr noundef nonnull @.str.1, i32 noundef 2532) #29
  br label %tng_file_input_numerical.exit18.thread

35:                                               ; preds = %tng_file_input_numerical.exit.thread
  %36 = load ptr, ptr @stderr, align 8, !tbaa !14
  %37 = tail call i32 (ptr, ptr, ...) @fprintf(ptr noundef %36, ptr noundef nonnull @.str.30, ptr noundef nonnull @.str.1, i32 noundef 2532) #29
  br label %tng_file_input_numerical.exit18.thread

tng_file_input_numerical.exit18.thread:           ; preds = %31, %29, %35, %tng_file_input_numerical.exit18, %tng_file_input_numerical.exit.thread20
  ret void
}